target datalayout = "e-m:e-p270:32:32-p271:32:32-p272:64:64-i64:64-i128:128-f80:128-n8:16:32:64-S128"
target triple = "x86_64-pc-linux-gnu"

; Function Attrs: inlinehint nounwind willreturn memory(read) uwtable
define available_externally i32 @atoi(ptr noundef nonnull %0) #8 {
  %2 = alloca ptr, align 8
  store ptr %0, ptr %2, align 8
  %3 = load ptr, ptr %2, align 8
  %4 = call i64 @strtol(ptr noundef %3, ptr noundef null, i32 noundef 10) #10
  %5 = trunc i64 %4 to i32
  ret i32 %5
}

; Function Attrs: nounwind uwtable
define internal i32 @_set_qos_bit_from_string(ptr noundef %0, ptr noundef %1) #0 {
  %3 = alloca i32, align 4
  %4 = alloca ptr, align 8
  %5 = alloca ptr, align 8
  %6 = alloca ptr, align 8
  %7 = alloca i64, align 8
  %8 = alloca i32, align 4
  store ptr %0, ptr %4, align 8
  store ptr %1, ptr %5, align 8
  call void @llvm.lifetime.start.p0(i64 8, ptr %6) #10
  call void @llvm.lifetime.start.p0(i64 8, ptr %7) #10
  store i64 0, ptr %7, align 8
  %9 = load ptr, ptr %5, align 8
  %10 = icmp ne ptr %9, null
  br i1 %10, label %12, label %11

11:                                               ; preds = %2
  store i32 -1, ptr %3, align 4
  store i32 1, ptr %8, align 4
  br label %44

12:                                               ; preds = %2
  %13 = load ptr, ptr %5, align 8
  %14 = getelementptr inbounds i8, ptr %13, i64 0
  %15 = load i8, ptr %14, align 1
  %16 = sext i8 %15 to i32
  %17 = icmp eq i32 %16, 45
  br i1 %17, label %18, label %21

18:                                               ; preds = %12
  %19 = load ptr, ptr %5, align 8
  %20 = getelementptr inbounds nuw i8, ptr %19, i32 1
  store ptr %20, ptr %5, align 8
  store ptr @bit_clear, ptr %6, align 8
  br label %32

21:                                               ; preds = %12
  %22 = load ptr, ptr %5, align 8
  %23 = getelementptr inbounds i8, ptr %22, i64 0
  %24 = load i8, ptr %23, align 1
  %25 = sext i8 %24 to i32
  %26 = icmp eq i32 %25, 43
  br i1 %26, label %27, label %30

27:                                               ; preds = %21
  %28 = load ptr, ptr %5, align 8
  %29 = getelementptr inbounds nuw i8, ptr %28, i32 1
  store ptr %29, ptr %5, align 8
  store ptr @bit_set, ptr %6, align 8
  br label %31

30:                                               ; preds = %21
  store ptr @bit_set, ptr %6, align 8
  br label %31

31:                                               ; preds = %30, %27
  br label %32

32:                                               ; preds = %31, %18
  %33 = load ptr, ptr %5, align 8
  %34 = call i32 @atoi(ptr noundef %33) #11
  %35 = sext i32 %34 to i64
  store i64 %35, ptr %7, align 8
  %36 = load ptr, ptr %4, align 8
  %37 = call i64 @bit_size(ptr noundef %36)
  %38 = icmp sge i64 %35, %37
  br i1 %38, label %39, label %40

39:                                               ; preds = %32
  store i32 -1, ptr %3, align 4
  store i32 1, ptr %8, align 4
  br label %44

40:                                               ; preds = %32
  %41 = load ptr, ptr %6, align 8
  %42 = load ptr, ptr %4, align 8
  %43 = load i64, ptr %7, align 8
  call void %41(ptr noundef %42, i64 noundef %43)
  store i32 0, ptr %3, align 4
  store i32 1, ptr %8, align 4
  br label %44

44:                                               ; preds = %40, %39, %11
  call void @llvm.lifetime.end.p0(i64 8, ptr %7) #10
  call void @llvm.lifetime.end.p0(i64 8, ptr %6) #10
  %45 = load i32, ptr %3, align 4
  ret i32 %45
}

; Function Attrs: nounwind uwtable
define dso_local i32 @set_qos_bitstr_from_string(ptr noundef %0, ptr noundef %1) #0 {
  %3 = alloca i32, align 4
  %4 = alloca ptr, align 8
  %5 = alloca ptr, align 8
  %6 = alloca i32, align 4
  %7 = alloca i32, align 4
  %8 = alloca i32, align 4
  %9 = alloca ptr, align 8
  %10 = alloca i32, align 4
  store ptr %0, ptr %4, align 8
  store ptr %1, ptr %5, align 8
  call void @llvm.lifetime.start.p0(i64 4, ptr %6) #10
  store i32 0, ptr %6, align 4
  call void @llvm.lifetime.start.p0(i64 4, ptr %7) #10
  store i32 0, ptr %7, align 4
  call void @llvm.lifetime.start.p0(i64 4, ptr %8) #10
  store i32 0, ptr %8, align 4
  call void @llvm.lifetime.start.p0(i64 8, ptr %9) #10
  store ptr null, ptr %9, align 8
  %11 = load ptr, ptr %5, align 8
  %12 = icmp ne ptr %11, null
  br i1 %12, label %14, label %13

13:                                               ; preds = %2
  store i32 -1, ptr %3, align 4
  store i32 1, ptr %10, align 4
  br label %84

14:                                               ; preds = %2
  %15 = load ptr, ptr %5, align 8
  %16 = load i32, ptr %7, align 4
  %17 = sext i32 %16 to i64
  %18 = getelementptr inbounds i8, ptr %15, i64 %17
  %19 = load i8, ptr %18, align 1
  %20 = sext i8 %19 to i32
  %21 = icmp eq i32 %20, 44
  br i1 %21, label %22, label %25

22:                                               ; preds = %14
  %23 = load i32, ptr %7, align 4
  %24 = add nsw i32 %23, 1
  store i32 %24, ptr %7, align 4
  br label %25

25:                                               ; preds = %22, %14
  %26 = load i32, ptr %7, align 4
  store i32 %26, ptr %8, align 4
  br label %27

27:                                               ; preds = %67, %25
  %28 = load ptr, ptr %5, align 8
  %29 = load i32, ptr %7, align 4
  %30 = sext i32 %29 to i64
  %31 = getelementptr inbounds i8, ptr %28, i64 %30
  %32 = load i8, ptr %31, align 1
  %33 = icmp ne i8 %32, 0
  br i1 %33, label %34, label %70

34:                                               ; preds = %27
  %35 = load ptr, ptr %5, align 8
  %36 = load i32, ptr %7, align 4
  %37 = sext i32 %36 to i64
  %38 = getelementptr inbounds i8, ptr %35, i64 %37
  %39 = load i8, ptr %38, align 1
  %40 = sext i8 %39 to i32
  %41 = icmp eq i32 %40, 44
  br i1 %41, label %42, label %67

42:                                               ; preds = %34
  %43 = load ptr, ptr %5, align 8
  %44 = load i32, ptr %7, align 4
  %45 = add nsw i32 %44, 1
  %46 = sext i32 %45 to i64
  %47 = getelementptr inbounds i8, ptr %43, i64 %46
  %48 = load i8, ptr %47, align 1
  %49 = icmp ne i8 %48, 0
  br i1 %49, label %51, label %50

50:                                               ; preds = %42
  br label %70

51:                                               ; preds = %42
  %52 = load ptr, ptr %5, align 8
  %53 = load i32, ptr %8, align 4
  %54 = sext i32 %53 to i64
  %55 = getelementptr inbounds i8, ptr %52, i64 %54
  %56 = load i32, ptr %7, align 4
  %57 = load i32, ptr %8, align 4
  %58 = sub nsw i32 %56, %57
  %59 = sext i32 %58 to i64
  %60 = call ptr @xstrndup(ptr noundef %55, i64 noundef %59)
  store ptr %60, ptr %9, align 8
  %61 = load ptr, ptr %4, align 8
  %62 = load ptr, ptr %9, align 8
  %63 = call i32 @_set_qos_bit_from_string(ptr noundef %61, ptr noundef %62)
  call void @slurm_xfree(ptr noundef %9)
  %64 = load i32, ptr %7, align 4
  %65 = add nsw i32 %64, 1
  store i32 %65, ptr %7, align 4
  %66 = load i32, ptr %7, align 4
  store i32 %66, ptr %8, align 4
  br label %67

67:                                               ; preds = %51, %34
  %68 = load i32, ptr %7, align 4
  %69 = add nsw i32 %68, 1
  store i32 %69, ptr %7, align 4
  br label %27, !llvm.loop !33

70:                                               ; preds = %50, %27
  %71 = load ptr, ptr %5, align 8
  %72 = load i32, ptr %8, align 4
  %73 = sext i32 %72 to i64
  %74 = getelementptr inbounds i8, ptr %71, i64 %73
  %75 = load i32, ptr %7, align 4
  %76 = load i32, ptr %8, align 4
  %77 = sub nsw i32 %75, %76
  %78 = sext i32 %77 to i64
  %79 = call ptr @xstrndup(ptr noundef %74, i64 noundef %78)
  store ptr %79, ptr %9, align 8
  %80 = load ptr, ptr %4, align 8
  %81 = load ptr, ptr %9, align 8
  %82 = call i32 @_set_qos_bit_from_string(ptr noundef %80, ptr noundef %81)
  call void @slurm_xfree(ptr noundef %9)
  %83 = load i32, ptr %6, align 4
  store i32 %83, ptr %3, align 4
  store i32 1, ptr %10, align 4
  br label %84

84:                                               ; preds = %70, %13
  call void @llvm.lifetime.end.p0(i64 8, ptr %9) #10
  call void @llvm.lifetime.end.p0(i64 4, ptr %8) #10
  call void @llvm.lifetime.end.p0(i64 4, ptr %7) #10
  call void @llvm.lifetime.end.p0(i64 4, ptr %6) #10
  %85 = load i32, ptr %3, align 4
  ret i32 %85
}