; Function Attrs: nounwind uwtable
define dso_local range(i32 -1, 1) i32 @set_qos_bitstr_from_string(ptr noundef %0, ptr noundef %1) local_unnamed_addr #0 {
  %3 = alloca ptr, align 8
  call void @llvm.lifetime.start.p0(i64 8, ptr nonnull %3) #19
  store ptr null, ptr %3, align 8
  %.not = icmp eq ptr %1, null
  br i1 %.not, label %52, label %4

4:                                                ; preds = %2
  %5 = load i8, ptr %1, align 1
  %6 = icmp eq i8 %5, 44
  %spec.select = zext i1 %6 to i32
  br label %7

7:                                                ; preds = %33, %4
  %.126 = phi i32 [ %spec.select, %4 ], [ %34, %33 ]
  %.0 = phi i32 [ %spec.select, %4 ], [ %.1, %33 ]
  %8 = sext i32 %.126 to i64
  %9 = getelementptr inbounds i8, ptr %1, i64 %8
  %10 = load i8, ptr %9, align 1
  switch i8 %10, label %33 [
    i8 0, label %35
    i8 44, label %11
  ]

11:                                               ; preds = %7
  %12 = add nsw i32 %.126, 1
  %13 = sext i32 %12 to i64
  %14 = getelementptr inbounds i8, ptr %1, i64 %13
  %15 = load i8, ptr %14, align 1
  %.not31 = icmp eq i8 %15, 0
  br i1 %.not31, label %35, label %16

16:                                               ; preds = %11
  %17 = sext i32 %.0 to i64
  %18 = getelementptr inbounds i8, ptr %1, i64 %17
  %19 = sub nsw i32 %.126, %.0
  %20 = sext i32 %19 to i64
  %21 = call ptr @xstrndup(ptr noundef nonnull %18, i64 noundef %20) #19
  store ptr %21, ptr %3, align 8
  %.not.i = icmp eq ptr %21, null
  br i1 %.not.i, label %_set_qos_bit_from_string.exit, label %22

22:                                               ; preds = %16
  %23 = load i8, ptr %21, align 1
  switch i8 %23, label %28 [
    i8 45, label %24
    i8 43, label %26
  ]

24:                                               ; preds = %22
  %25 = getelementptr inbounds nuw i8, ptr %21, i64 1
  br label %28

26:                                               ; preds = %22
  %27 = getelementptr inbounds nuw i8, ptr %21, i64 1
  br label %28

28:                                               ; preds = %26, %24, %22
  %.010.i = phi ptr [ %25, %24 ], [ %27, %26 ], [ %21, %22 ]
  %.0.i = phi ptr [ @bit_clear, %24 ], [ @bit_set, %26 ], [ @bit_set, %22 ]
  %29 = call i64 @strtol(ptr noundef nonnull captures(none) %.010.i, ptr noundef null, i32 noundef 10) #19
  %sext.i = shl i64 %29, 32
  %30 = ashr exact i64 %sext.i, 32
  %31 = call i64 @bit_size(ptr noundef %0) #19
  %.not15.i = icmp sgt i64 %31, %30
  br i1 %.not15.i, label %32, label %_set_qos_bit_from_string.exit

32:                                               ; preds = %28
  call void %.0.i(ptr noundef %0, i64 noundef %30) #19, !callees !30
  br label %_set_qos_bit_from_string.exit

_set_qos_bit_from_string.exit:                    ; preds = %16, %28, %32
  call void @slurm_xfree(ptr noundef nonnull %3) #19
  br label %33

33:                                               ; preds = %7, %_set_qos_bit_from_string.exit
  %.2 = phi i32 [ %12, %_set_qos_bit_from_string.exit ], [ %.126, %7 ]
  %.1 = phi i32 [ %12, %_set_qos_bit_from_string.exit ], [ %.0, %7 ]
  %34 = add nsw i32 %.2, 1
  br label %7, !llvm.loop !32

35:                                               ; preds = %7, %11
  %36 = sext i32 %.0 to i64
  %37 = getelementptr inbounds i8, ptr %1, i64 %36
  %38 = sub nsw i32 %.126, %.0
  %39 = sext i32 %38 to i64
  %40 = call ptr @xstrndup(ptr noundef nonnull %37, i64 noundef %39) #19
  store ptr %40, ptr %3, align 8
  %.not.i32 = icmp eq ptr %40, null
  br i1 %.not.i32, label %_set_qos_bit_from_string.exit38, label %41

41:                                               ; preds = %35
  %42 = load i8, ptr %40, align 1
  switch i8 %42, label %47 [
    i8 45, label %43
    i8 43, label %45
  ]

43:                                               ; preds = %41
  %44 = getelementptr inbounds nuw i8, ptr %40, i64 1
  br label %47

45:                                               ; preds = %41
  %46 = getelementptr inbounds nuw i8, ptr %40, i64 1
  br label %47

47:                                               ; preds = %45, %43, %41
  %.010.i33 = phi ptr [ %44, %43 ], [ %46, %45 ], [ %40, %41 ]
  %.0.i34 = phi ptr [ @bit_clear, %43 ], [ @bit_set, %45 ], [ @bit_set, %41 ]
  %48 = call i64 @strtol(ptr noundef nonnull captures(none) %.010.i33, ptr noundef null, i32 noundef 10) #19
  %sext.i35 = shl i64 %48, 32
  %49 = ashr exact i64 %sext.i35, 32
  %50 = call i64 @bit_size(ptr noundef %0) #19
  %.not15.i36 = icmp sgt i64 %50, %49
  br i1 %.not15.i36, label %51, label %_set_qos_bit_from_string.exit38

51:                                               ; preds = %47
  call void %.0.i34(ptr noundef %0, i64 noundef %49) #19, !callees !30
  br label %_set_qos_bit_from_string.exit38

_set_qos_bit_from_string.exit38:                  ; preds = %35, %47, %51
  call void @slurm_xfree(ptr noundef nonnull %3) #19
  br label %52

52:                                               ; preds = %2, %_set_qos_bit_from_string.exit38
  %.027 = phi i32 [ 0, %_set_qos_bit_from_string.exit38 ], [ -1, %2 ]
  call void @llvm.lifetime.end.p0(i64 8, ptr nonnull %3) #19
  ret i32 %.027
}